target datalayout = "e-m:e-p270:32:32-p271:32:32-p272:64:64-i64:64-i128:128-f80:128-n8:16:32:64-S128"
target triple = "x86_64-pc-linux-gnu"

%class.QCache = type { %"struct.QCache<unsigned int, QList<QString>>::Chain", %"struct.QHashPrivate::Data", i64, i64 }
%"struct.QCache<unsigned int, QList<QString>>::Chain" = type { ptr, ptr }
%"struct.QHashPrivate::Data" = type { %"class.QtPrivate::RefCount", i64, i64, i64, ptr }
%"class.QtPrivate::RefCount" = type { %class.QBasicAtomicInteger }
%class.QBasicAtomicInteger = type { %"struct.std::atomic" }
%"struct.std::atomic" = type { %"struct.std::__atomic_base" }
%"struct.std::__atomic_base" = type { i32 }
%class.QList.25 = type { %struct.QArrayDataPointer.28 }
%struct.QArrayDataPointer.28 = type { ptr, ptr, i64 }
%"struct.QHashPrivate::Span" = type <{ [128 x i8], ptr, i8, i8, [6 x i8] }>

@_ZN16PacketListRecord15col_text_cache_E = external global %class.QCache, align 8

; Function Attrs: mustprogress nounwind null_pointer_is_valid sspstrong uwtable
define linkonce_odr void @_ZN12QHashPrivate4SpanIN6QCacheIj5QListI7QStringEE4NodeEED2Ev(ptr noundef align 8 dereferenceable_or_null(138) %0) unnamed_addr #2 comdat align 2 {
  %2 = alloca ptr, align 8
  store ptr %0, ptr %2, align 8
  %3 = load ptr, ptr %2, align 8
  call void @_ZN12QHashPrivate4SpanIN6QCacheIj5QListI7QStringEE4NodeEE8freeDataEv(ptr noundef align 8 dereferenceable_or_null(138) %3) #24
  ret void
}

; Function Attrs: noinline noreturn nounwind null_pointer_is_valid sspstrong uwtable
define linkonce_odr hidden void @__clang_call_terminate(ptr noundef %0) #12 comdat {
  %2 = call ptr @__cxa_begin_catch(ptr %0) #24
  call void @_ZSt9terminatev() #27
  unreachable
}

; Function Attrs: mustprogress nounwind null_pointer_is_valid sspstrong uwtable
define linkonce_odr void @_ZN12QHashPrivate4DataIN6QCacheIj5QListI7QStringEE4NodeEE5clearEv(ptr noundef align 8 dereferenceable_or_null(40) %0) #2 comdat align 2 {
  %2 = alloca ptr, align 8
  store ptr %0, ptr %2, align 8
  %3 = load ptr, ptr %2, align 8
  %4 = getelementptr inbounds nuw %"struct.QHashPrivate::Data", ptr %3, i32 0, i32 4
  %5 = load ptr, ptr %4, align 8
  %6 = icmp eq ptr %5, null
  br i1 %6, label %19, label %7

7:                                                ; preds = %1
  %8 = getelementptr inbounds i8, ptr %5, i64 -8
  %9 = load i64, ptr %8, align 8
  %10 = getelementptr inbounds %"struct.QHashPrivate::Span", ptr %5, i64 %9
  %11 = icmp eq ptr %5, %10
  br i1 %11, label %16, label %12

12:                                               ; preds = %12, %7
  %13 = phi ptr [ %10, %7 ], [ %14, %12 ]
  %14 = getelementptr inbounds %"struct.QHashPrivate::Span", ptr %13, i64 -1
  call void @_ZN12QHashPrivate4SpanIN6QCacheIj5QListI7QStringEE4NodeEED2Ev(ptr noundef align 8 dereferenceable_or_null(138) %14) #24
  %15 = icmp eq ptr %14, %5
  br i1 %15, label %16, label %12

16:                                               ; preds = %12, %7
  %17 = mul i64 144, %9
  %18 = add i64 %17, 8
  call void @_ZdaPvm(ptr noundef %8, i64 noundef %18) #26
  br label %19

19:                                               ; preds = %16, %1
  %20 = getelementptr inbounds nuw %"struct.QHashPrivate::Data", ptr %3, i32 0, i32 4
  store ptr null, ptr %20, align 8
  %21 = getelementptr inbounds nuw %"struct.QHashPrivate::Data", ptr %3, i32 0, i32 1
  store i64 0, ptr %21, align 8
  %22 = getelementptr inbounds nuw %"struct.QHashPrivate::Data", ptr %3, i32 0, i32 2
  store i64 0, ptr %22, align 8
  ret void
}

; Function Attrs: mustprogress nounwind null_pointer_is_valid sspstrong uwtable
define linkonce_odr void @_ZN6QCacheIj5QListI7QStringEE5clearEv(ptr noundef align 8 dereferenceable_or_null(72) %0) #2 comdat align 2 personality ptr @__gxx_personality_v0 {
  %2 = alloca ptr, align 8
  store ptr %0, ptr %2, align 8
  %3 = load ptr, ptr %2, align 8
  %4 = getelementptr inbounds nuw %class.QCache, ptr %3, i32 0, i32 1
  invoke void @_ZN12QHashPrivate4DataIN6QCacheIj5QListI7QStringEE4NodeEE5clearEv(ptr noundef align 8 dereferenceable_or_null(40) %4)
          to label %5 unwind label %13

5:                                                ; preds = %1
  %6 = getelementptr inbounds nuw %class.QCache, ptr %3, i32 0, i32 3
  store i64 0, ptr %6, align 8
  %7 = getelementptr inbounds nuw %class.QCache, ptr %3, i32 0, i32 0
  %8 = getelementptr inbounds nuw %class.QCache, ptr %3, i32 0, i32 0
  %9 = getelementptr inbounds nuw %"struct.QCache<unsigned int, QList<QString>>::Chain", ptr %8, i32 0, i32 1
  store ptr %7, ptr %9, align 8
  %10 = getelementptr inbounds nuw %class.QCache, ptr %3, i32 0, i32 0
  %11 = getelementptr inbounds nuw %class.QCache, ptr %3, i32 0, i32 0
  %12 = getelementptr inbounds nuw %"struct.QCache<unsigned int, QList<QString>>::Chain", ptr %11, i32 0, i32 0
  store ptr %10, ptr %12, align 8
  ret void

13:                                               ; preds = %1
  %14 = landingpad { ptr, i32 }
          catch ptr null
  %15 = extractvalue { ptr, i32 } %14, 0
  call void @__clang_call_terminate(ptr %15) #27
  unreachable
}

; Function Attrs: mustprogress nounwind null_pointer_is_valid sspstrong uwtable
define linkonce_odr void @_ZN17QArrayDataPointerI21QPersistentModelIndexEC2Ev(ptr noundef align 8 dereferenceable_or_null(24) %0) unnamed_addr #2 comdat align 2 {
  %2 = alloca ptr, align 8
  store ptr %0, ptr %2, align 8
  %3 = load ptr, ptr %2, align 8
  %4 = getelementptr inbounds nuw %struct.QArrayDataPointer.28, ptr %3, i32 0, i32 0
  store ptr null, ptr %4, align 8
  %5 = getelementptr inbounds nuw %struct.QArrayDataPointer.28, ptr %3, i32 0, i32 1
  store ptr null, ptr %5, align 8
  %6 = getelementptr inbounds nuw %struct.QArrayDataPointer.28, ptr %3, i32 0, i32 2
  store i64 0, ptr %6, align 8
  ret void
}

; Function Attrs: mustprogress nounwind null_pointer_is_valid sspstrong uwtable
define linkonce_odr void @_ZN16PacketListRecord20invalidateAllRecordsEv() #2 comdat align 2 {
  call void @_ZN6QCacheIj5QListI7QStringEE5clearEv(ptr noundef align 8 dereferenceable_or_null(72) @_ZN16PacketListRecord15col_text_cache_E) #24
  ret void
}

; Function Attrs: mustprogress nounwind null_pointer_is_valid sspstrong uwtable
define linkonce_odr void @_ZN5QListI21QPersistentModelIndexEC2Ev(ptr noundef align 8 dereferenceable_or_null(24) %0) unnamed_addr #2 comdat align 2 {
  %2 = alloca ptr, align 8
  store ptr %0, ptr %2, align 8
  %3 = load ptr, ptr %2, align 8
  %4 = getelementptr inbounds nuw %class.QList.25, ptr %3, i32 0, i32 0
  call void @_ZN17QArrayDataPointerI21QPersistentModelIndexEC2Ev(ptr noundef align 8 dereferenceable_or_null(24) %4) #24
  ret void
}

; Function Attrs: mustprogress null_pointer_is_valid sspstrong uwtable
define void @_ZN15PacketListModel26invalidateAllColumnStringsEv(ptr noundef align 8 dereferenceable_or_null(156) %0) #0 align 2 personality ptr @__gxx_personality_v0 {
  %2 = alloca ptr, align 8
  %3 = alloca %class.QList.25, align 8
  %4 = alloca ptr, align 8
  %5 = alloca i32, align 4
  %6 = alloca %class.QList.25, align 8
  store ptr %0, ptr %2, align 8
  %7 = load ptr, ptr %2, align 8
  call void @llvm.lifetime.start.p0(i64 24, ptr %3) #24
  call void @llvm.memset.p0.i64(ptr align 8 %3, i8 0, i64 24, i1 false)
  call void @_ZN5QListI21QPersistentModelIndexEC2Ev(ptr noundef align 8 dereferenceable_or_null(24) %3) #24
  invoke void @_ZN18QAbstractItemModel22layoutAboutToBeChangedERK5QListI21QPersistentModelIndexENS_16LayoutChangeHintE(ptr noundef align 8 dereferenceable_or_null(16) %7, ptr noundef align 8 dereferenceable(24) %3, i32 noundef 0)
          to label %8 unwind label %10

8:                                                ; preds = %1
  call void @_ZN5QListI21QPersistentModelIndexED2Ev(ptr noundef align 8 dereferenceable_or_null(24) %3) #24
  call void @llvm.lifetime.end.p0(i64 24, ptr %3) #24
  call void @_ZN16PacketListRecord20invalidateAllRecordsEv()
  call void @llvm.lifetime.start.p0(i64 24, ptr %6) #24
  call void @llvm.memset.p0.i64(ptr align 8 %6, i8 0, i64 24, i1 false)
  call void @_ZN5QListI21QPersistentModelIndexEC2Ev(ptr noundef align 8 dereferenceable_or_null(24) %6) #24
  invoke void @_ZN18QAbstractItemModel13layoutChangedERK5QListI21QPersistentModelIndexENS_16LayoutChangeHintE(ptr noundef align 8 dereferenceable_or_null(16) %7, ptr noundef align 8 dereferenceable(24) %6, i32 noundef 0)
          to label %9 unwind label %14

9:                                                ; preds = %8
  call void @_ZN5QListI21QPersistentModelIndexED2Ev(ptr noundef align 8 dereferenceable_or_null(24) %6) #24
  call void @llvm.lifetime.end.p0(i64 24, ptr %6) #24
  ret void

10:                                               ; preds = %1
  %11 = landingpad { ptr, i32 }
          cleanup
  %12 = extractvalue { ptr, i32 } %11, 0
  store ptr %12, ptr %4, align 8
  %13 = extractvalue { ptr, i32 } %11, 1
  store i32 %13, ptr %5, align 4
  call void @_ZN5QListI21QPersistentModelIndexED2Ev(ptr noundef align 8 dereferenceable_or_null(24) %3) #24
  call void @llvm.lifetime.end.p0(i64 24, ptr %3) #24
  br label %18

14:                                               ; preds = %8
  %15 = landingpad { ptr, i32 }
          cleanup
  %16 = extractvalue { ptr, i32 } %15, 0
  store ptr %16, ptr %4, align 8
  %17 = extractvalue { ptr, i32 } %15, 1
  store i32 %17, ptr %5, align 4
  call void @_ZN5QListI21QPersistentModelIndexED2Ev(ptr noundef align 8 dereferenceable_or_null(24) %6) #24
  call void @llvm.lifetime.end.p0(i64 24, ptr %6) #24
  br label %18

18:                                               ; preds = %14, %10
  %19 = load ptr, ptr %4, align 8
  %20 = load i32, ptr %5, align 4
  %21 = insertvalue { ptr, i32 } poison, ptr %19, 0
  %22 = insertvalue { ptr, i32 } %21, i32 %20, 1
  resume { ptr, i32 } %22
}