; Function Attrs: mustprogress null_pointer_is_valid sspstrong uwtable
define void @_ZN15PacketListModel26invalidateAllColumnStringsEv(ptr noundef align 8 dereferenceable_or_null(156) %0) local_unnamed_addr #0 align 2 personality ptr @__gxx_personality_v0 {
  %2 = alloca %class.QList.25, align 8
  %3 = alloca %class.QList.25, align 8
  call void @llvm.lifetime.start.p0(i64 24, ptr nonnull %2) #33
  call void @llvm.memset.p0.i64(ptr noundef nonnull align 8 dereferenceable(24) %2, i8 0, i64 24, i1 false)
  invoke void @_ZN18QAbstractItemModel22layoutAboutToBeChangedERK5QListI21QPersistentModelIndexENS_16LayoutChangeHintE(ptr noundef align 8 dereferenceable_or_null(16) %0, ptr noundef nonnull align 8 dereferenceable(24) %2, i32 noundef 0)
          to label %4 unwind label %38

4:                                                ; preds = %1
  %5 = load ptr, ptr %2, align 8
  %.not.i.i.i = icmp eq ptr %5, null
  br i1 %.not.i.i.i, label %_ZN5QListI21QPersistentModelIndexED2Ev.exit, label %_ZN17QArrayDataPointerI21QPersistentModelIndexE5derefEv.exit.i.i

_ZN17QArrayDataPointerI21QPersistentModelIndexE5derefEv.exit.i.i: ; preds = %4
  %6 = atomicrmw sub ptr %5, i32 1 seq_cst, align 4
  %.not.i.i = icmp eq i32 %6, 1
  br i1 %.not.i.i, label %7, label %_ZN5QListI21QPersistentModelIndexED2Ev.exit

7:                                                ; preds = %_ZN17QArrayDataPointerI21QPersistentModelIndexE5derefEv.exit.i.i
  %8 = getelementptr inbounds nuw i8, ptr %2, i64 8
  %9 = load ptr, ptr %8, align 8
  %10 = getelementptr inbounds nuw i8, ptr %2, i64 16
  %11 = load i64, ptr %10, align 8
  %12 = getelementptr %class.QPersistentModelIndex, ptr %9, i64 %11
  %.idx.mask.i.i.i = and i64 %11, 2305843009213693951
  %.not4.i.i.i.i.i.i = icmp eq i64 %.idx.mask.i.i.i, 0
  br i1 %.not4.i.i.i.i.i.i, label %_ZN9QtPrivate16QGenericArrayOpsI21QPersistentModelIndexE10destroyAllEv.exit.i.i, label %.lr.ph.i.i.i.i.i.i

.lr.ph.i.i.i.i.i.i:                               ; preds = %7, %.lr.ph.i.i.i.i.i.i
  %.05.i.i.i.i.i.i = phi ptr [ %13, %.lr.ph.i.i.i.i.i.i ], [ %9, %7 ]
  call void @_ZN21QPersistentModelIndexD1Ev(ptr noundef align 8 dereferenceable_or_null(8) %.05.i.i.i.i.i.i) #33
  %13 = getelementptr i8, ptr %.05.i.i.i.i.i.i, i64 8
  %.not.i.i.i.i.i.i = icmp eq ptr %13, %12
  br i1 %.not.i.i.i.i.i.i, label %_ZN9QtPrivate16QGenericArrayOpsI21QPersistentModelIndexE10destroyAllEv.exit.i.i, label %.lr.ph.i.i.i.i.i.i, !llvm.loop !21

_ZN9QtPrivate16QGenericArrayOpsI21QPersistentModelIndexE10destroyAllEv.exit.i.i: ; preds = %.lr.ph.i.i.i.i.i.i, %7
  %14 = load ptr, ptr %2, align 8
  call void @_ZN10QArrayData10deallocateEPS_xx(ptr noundef %14, i64 noundef 8, i64 noundef 8) #33
  br label %_ZN5QListI21QPersistentModelIndexED2Ev.exit

_ZN5QListI21QPersistentModelIndexED2Ev.exit:      ; preds = %4, %_ZN17QArrayDataPointerI21QPersistentModelIndexE5derefEv.exit.i.i, %_ZN9QtPrivate16QGenericArrayOpsI21QPersistentModelIndexE10destroyAllEv.exit.i.i
  call void @llvm.lifetime.end.p0(i64 24, ptr nonnull %2) #33
  %15 = load ptr, ptr getelementptr inbounds nuw (i8, ptr @_ZN16PacketListRecord15col_text_cache_E, i64 48), align 8
  %16 = icmp eq ptr %15, null
  br i1 %16, label %_ZN16PacketListRecord20invalidateAllRecordsEv.exit, label %17

17:                                               ; preds = %_ZN5QListI21QPersistentModelIndexED2Ev.exit
  %18 = getelementptr inbounds i8, ptr %15, i64 -8
  %19 = load i64, ptr %18, align 8
  %20 = icmp eq i64 %19, 0
  br i1 %20, label %.loopexit.i.i.i, label %.preheader.preheader.i.i.i

.preheader.preheader.i.i.i:                       ; preds = %17
  %21 = getelementptr inbounds %"struct.QHashPrivate::Span", ptr %15, i64 %19
  br label %.preheader.i.i.i

.preheader.i.i.i:                                 ; preds = %.preheader.i.i.i, %.preheader.preheader.i.i.i
  %22 = phi ptr [ %23, %.preheader.i.i.i ], [ %21, %.preheader.preheader.i.i.i ]
  %23 = getelementptr inbounds i8, ptr %22, i64 -144
  call void @_ZN12QHashPrivate4SpanIN6QCacheIj5QListI7QStringEE4NodeEE8freeDataEv(ptr noundef align 8 dereferenceable_or_null(138) %23) #33
  %24 = icmp eq ptr %23, %15
  br i1 %24, label %.loopexit.i.i.i, label %.preheader.i.i.i

.loopexit.i.i.i:                                  ; preds = %.preheader.i.i.i, %17
  %25 = mul i64 %19, 144
  %26 = or disjoint i64 %25, 8
  call void @_ZdaPvm(ptr noundef %18, i64 noundef %26) #32
  br label %_ZN16PacketListRecord20invalidateAllRecordsEv.exit

_ZN16PacketListRecord20invalidateAllRecordsEv.exit: ; preds = %_ZN5QListI21QPersistentModelIndexED2Ev.exit, %.loopexit.i.i.i
  store ptr null, ptr getelementptr inbounds nuw (i8, ptr @_ZN16PacketListRecord15col_text_cache_E, i64 48), align 8
  call void @llvm.memset.p0.i64(ptr noundef nonnull align 8 dereferenceable(16) getelementptr inbounds nuw (i8, ptr @_ZN16PacketListRecord15col_text_cache_E, i64 24), i8 0, i64 16, i1 false)
  store i64 0, ptr getelementptr inbounds nuw (i8, ptr @_ZN16PacketListRecord15col_text_cache_E, i64 64), align 8
  store ptr @_ZN16PacketListRecord15col_text_cache_E, ptr getelementptr inbounds nuw (i8, ptr @_ZN16PacketListRecord15col_text_cache_E, i64 8), align 8
  store ptr @_ZN16PacketListRecord15col_text_cache_E, ptr @_ZN16PacketListRecord15col_text_cache_E, align 8
  call void @llvm.lifetime.start.p0(i64 24, ptr nonnull %3) #33
  call void @llvm.memset.p0.i64(ptr noundef nonnull align 8 dereferenceable(24) %3, i8 0, i64 24, i1 false)
  invoke void @_ZN18QAbstractItemModel13layoutChangedERK5QListI21QPersistentModelIndexENS_16LayoutChangeHintE(ptr noundef align 8 dereferenceable_or_null(16) %0, ptr noundef nonnull align 8 dereferenceable(24) %3, i32 noundef 0)
          to label %27 unwind label %40

27:                                               ; preds = %_ZN16PacketListRecord20invalidateAllRecordsEv.exit
  %28 = load ptr, ptr %3, align 8
  %.not.i.i.i4 = icmp eq ptr %28, null
  br i1 %.not.i.i.i4, label %_ZN5QListI21QPersistentModelIndexED2Ev.exit13, label %_ZN17QArrayDataPointerI21QPersistentModelIndexE5derefEv.exit.i.i5

_ZN17QArrayDataPointerI21QPersistentModelIndexE5derefEv.exit.i.i5: ; preds = %27
  %29 = atomicrmw sub ptr %28, i32 1 seq_cst, align 4
  %.not.i.i6 = icmp eq i32 %29, 1
  br i1 %.not.i.i6, label %30, label %_ZN5QListI21QPersistentModelIndexED2Ev.exit13

30:                                               ; preds = %_ZN17QArrayDataPointerI21QPersistentModelIndexE5derefEv.exit.i.i5
  %31 = getelementptr inbounds nuw i8, ptr %3, i64 8
  %32 = load ptr, ptr %31, align 8
  %33 = getelementptr inbounds nuw i8, ptr %3, i64 16
  %34 = load i64, ptr %33, align 8
  %35 = getelementptr %class.QPersistentModelIndex, ptr %32, i64 %34
  %.idx.mask.i.i.i7 = and i64 %34, 2305843009213693951
  %.not4.i.i.i.i.i.i8 = icmp eq i64 %.idx.mask.i.i.i7, 0
  br i1 %.not4.i.i.i.i.i.i8, label %_ZN9QtPrivate16QGenericArrayOpsI21QPersistentModelIndexE10destroyAllEv.exit.i.i12, label %.lr.ph.i.i.i.i.i.i9

.lr.ph.i.i.i.i.i.i9:                              ; preds = %30, %.lr.ph.i.i.i.i.i.i9
  %.05.i.i.i.i.i.i10 = phi ptr [ %36, %.lr.ph.i.i.i.i.i.i9 ], [ %32, %30 ]
  call void @_ZN21QPersistentModelIndexD1Ev(ptr noundef align 8 dereferenceable_or_null(8) %.05.i.i.i.i.i.i10) #33
  %36 = getelementptr i8, ptr %.05.i.i.i.i.i.i10, i64 8
  %.not.i.i.i.i.i.i11 = icmp eq ptr %36, %35
  br i1 %.not.i.i.i.i.i.i11, label %_ZN9QtPrivate16QGenericArrayOpsI21QPersistentModelIndexE10destroyAllEv.exit.i.i12, label %.lr.ph.i.i.i.i.i.i9, !llvm.loop !21

_ZN9QtPrivate16QGenericArrayOpsI21QPersistentModelIndexE10destroyAllEv.exit.i.i12: ; preds = %.lr.ph.i.i.i.i.i.i9, %30
  %37 = load ptr, ptr %3, align 8
  call void @_ZN10QArrayData10deallocateEPS_xx(ptr noundef %37, i64 noundef 8, i64 noundef 8) #33
  br label %_ZN5QListI21QPersistentModelIndexED2Ev.exit13

_ZN5QListI21QPersistentModelIndexED2Ev.exit13:    ; preds = %27, %_ZN17QArrayDataPointerI21QPersistentModelIndexE5derefEv.exit.i.i5, %_ZN9QtPrivate16QGenericArrayOpsI21QPersistentModelIndexE10destroyAllEv.exit.i.i12
  call void @llvm.lifetime.end.p0(i64 24, ptr nonnull %3) #33
  ret void

38:                                               ; preds = %1
  %39 = landingpad { ptr, i32 }
          cleanup
  call void @_ZN5QListI21QPersistentModelIndexED2Ev(ptr noundef nonnull align 8 dereferenceable_or_null(24) %2) #33
  call void @llvm.lifetime.end.p0(i64 24, ptr nonnull %2) #33
  br label %42

40:                                               ; preds = %_ZN16PacketListRecord20invalidateAllRecordsEv.exit
  %41 = landingpad { ptr, i32 }
          cleanup
  call void @_ZN5QListI21QPersistentModelIndexED2Ev(ptr noundef nonnull align 8 dereferenceable_or_null(24) %3) #33
  call void @llvm.lifetime.end.p0(i64 24, ptr nonnull %3) #33
  br label %42

42:                                               ; preds = %40, %38
  %.pn = phi { ptr, i32 } [ %41, %40 ], [ %39, %38 ]
  resume { ptr, i32 } %.pn
}